; Function Attrs: mustprogress uwtable
define void @_ZNK32pxrInternal_v0_24__pxrReserved__20UsdSkelSkeletonQuery13GetJointOrderEv(ptr dead_on_unwind noalias writable sret(%"class.pxrInternal_v0_24__pxrReserved__::VtArray.5") align 8 %0, ptr nocapture noundef nonnull readonly align 8 dereferenceable(80) %1) local_unnamed_addr #0 align 2 {
  %3 = alloca %"class.pxrInternal_v0_24__pxrReserved__::TfCallContext", align 8
  %4 = alloca %"class.pxrInternal_v0_24__pxrReserved__::TfCallContext", align 8
  %5 = load ptr, ptr %1, align 8
  %.not.i.i.not = icmp eq ptr %5, null
  br i1 %.not.i.i.not, label %6, label %.critedge.thread

.critedge.thread:                                 ; preds = %2
  call void @llvm.lifetime.start.p0(i64 40, ptr nonnull %3)
  br label %_ZNK32pxrInternal_v0_24__pxrReserved__8TfRefPtrINS_22UsdSkel_SkelDefinitionEEptEv.exit

6:                                                ; preds = %2
  store ptr @.str.2, ptr %4, align 8
  %7 = getelementptr inbounds nuw i8, ptr %4, i64 8
  store ptr @__func__._ZNK32pxrInternal_v0_24__pxrReserved__20UsdSkelSkeletonQuery13GetJointOrderEv, ptr %7, align 8
  %8 = getelementptr inbounds nuw i8, ptr %4, i64 16
  store i64 439, ptr %8, align 8
  %9 = getelementptr inbounds nuw i8, ptr %4, i64 24
  store ptr @__PRETTY_FUNCTION__._ZNK32pxrInternal_v0_24__pxrReserved__20UsdSkelSkeletonQuery13GetJointOrderEv, ptr %9, align 8
  %10 = getelementptr inbounds nuw i8, ptr %4, i64 32
  store i8 0, ptr %10, align 8
  %11 = tail call noundef ptr (ptr, ...) @_ZN32pxrInternal_v0_24__pxrReserved__21Tf_VerifyStringFormatEPKcz(ptr noundef nonnull @.str.5)
  %12 = call noundef zeroext i1 @_ZN32pxrInternal_v0_24__pxrReserved__21Tf_FailedVerifyHelperERKNS_13TfCallContextEPKcS4_(ptr noundef nonnull align 8 dereferenceable(33) %4, ptr noundef nonnull @.str.4, ptr noundef %11)
  br i1 %12, label %.critedge, label %20

.critedge:                                        ; preds = %6
  %.pr = load ptr, ptr %1, align 8
  call void @llvm.lifetime.start.p0(i64 40, ptr nonnull %3)
  %.not.i = icmp eq ptr %.pr, null
  br i1 %.not.i, label %13, label %_ZNK32pxrInternal_v0_24__pxrReserved__8TfRefPtrINS_22UsdSkel_SkelDefinitionEEptEv.exit

13:                                               ; preds = %.critedge
  store ptr @.str.28, ptr %3, align 8
  %14 = getelementptr inbounds nuw i8, ptr %3, i64 8
  store ptr @__func__._ZNK32pxrInternal_v0_24__pxrReserved__8TfRefPtrINS_22UsdSkel_SkelDefinitionEEptEv, ptr %14, align 8
  %15 = getelementptr inbounds nuw i8, ptr %3, i64 16
  store i64 936, ptr %15, align 8
  %16 = getelementptr inbounds nuw i8, ptr %3, i64 24
  store ptr @__PRETTY_FUNCTION__._ZNK32pxrInternal_v0_24__pxrReserved__8TfRefPtrINS_22UsdSkel_SkelDefinitionEEptEv, ptr %16, align 8
  %17 = getelementptr inbounds nuw i8, ptr %3, i64 32
  store i8 0, ptr %17, align 8
  call void @_ZN32pxrInternal_v0_24__pxrReserved__40Tf_PostNullSmartPtrDereferenceFatalErrorERKNS_13TfCallContextEPKc(ptr noundef nonnull align 8 dereferenceable(33) %3, ptr noundef nonnull @_ZTSN32pxrInternal_v0_24__pxrReserved__8TfRefPtrINS_22UsdSkel_SkelDefinitionEEE) #16
  unreachable

_ZNK32pxrInternal_v0_24__pxrReserved__8TfRefPtrINS_22UsdSkel_SkelDefinitionEEptEv.exit: ; preds = %.critedge.thread, %.critedge
  %18 = phi ptr [ %5, %.critedge.thread ], [ %.pr, %.critedge ]
  call void @llvm.lifetime.end.p0(i64 40, ptr nonnull %3)
  %19 = getelementptr inbounds nuw i8, ptr %18, i64 48
  call void @_ZN32pxrInternal_v0_24__pxrReserved__7VtArrayINS_7TfTokenEEC1ERKS2_(ptr noundef nonnull align 8 dereferenceable(40) %0, ptr noundef nonnull align 8 dereferenceable(40) %19)
  br label %21

20:                                               ; preds = %6
  call void @_ZN32pxrInternal_v0_24__pxrReserved__7VtArrayINS_7TfTokenEEC1Ev(ptr noundef nonnull align 8 dereferenceable(40) %0)
  br label %21

21:                                               ; preds = %20, %_ZNK32pxrInternal_v0_24__pxrReserved__8TfRefPtrINS_22UsdSkel_SkelDefinitionEEptEv.exit
  ret void
}